target datalayout = "e-m:e-p270:32:32-p271:32:32-p272:64:64-i64:64-i128:128-f80:128-n8:16:32:64-S128"
target triple = "x86_64-pc-linux-gnu"

%struct.AAHD = type { i32, i32, [2 x ptr], [2 x ptr], ptr, [2 x ptr], [3 x i16], i16, [3 x i16], [3 x [3 x float]], ptr }
%class.LibRaw = type { ptr, %struct.libraw_data_t, ptr, %struct.libraw_internal_data_t, [2048 x %struct.decode], ptr, ptr, [10 x %struct.tiff_ifd_t], %class.libraw_memmgr, %struct.libraw_callbacks_t, { i64, i64 }, { i64, i64 }, { i64, i64 }, ptr, ptr, ptr, i64, ptr, ptr, ptr, ptr }
%struct.libraw_data_t = type { ptr, %struct.libraw_image_sizes_t, %struct.libraw_iparams_t, %struct.libraw_lensinfo_t, %struct.libraw_makernotes_t, %struct.libraw_shootinginfo_t, %struct.libraw_output_params_t, %struct.libraw_raw_unpack_params_t, i32, i32, %struct.libraw_colordata_t, %struct.libraw_imgother_t, %struct.libraw_thumbnail_t, %struct.libraw_thumbnail_list_t, %struct.libraw_rawdata_t, ptr }
%struct.libraw_image_sizes_t = type { i16, i16, i16, i16, i16, i16, i16, i16, i32, double, i32, [8 x [4 x i32]], i16, [2 x %struct.libraw_raw_inset_crop_t] }
%struct.libraw_raw_inset_crop_t = type { i16, i16, i16, i16 }
%struct.libraw_iparams_t = type { [4 x i8], [64 x i8], [64 x i8], [64 x i8], [64 x i8], [64 x i8], i32, i32, i32, i32, i32, i32, [6 x [6 x i8]], [6 x [6 x i8]], [5 x i8], i32, ptr }
%struct.libraw_lensinfo_t = type { float, float, float, float, float, [128 x i8], [128 x i8], [128 x i8], [128 x i8], i16, %struct.libraw_nikonlens_t, %struct.libraw_dnglens_t, %struct.libraw_makernotes_lens_t }
%struct.libraw_nikonlens_t = type { float, i8, i8, i8, i8 }
%struct.libraw_dnglens_t = type { float, float, float, float }
%struct.libraw_makernotes_lens_t = type { i64, [128 x i8], i16, i16, i64, i16, i16, [64 x i8], i16, [16 x i8], [16 x i8], float, float, float, float, float, float, float, float, float, float, float, float, float, float, float, i64, [128 x i8], i64, [128 x i8], i64, [128 x i8], i16, float }
%struct.libraw_makernotes_t = type { %struct.libraw_canon_makernotes_t, %struct.libraw_nikon_makernotes_t, %struct.libraw_hasselblad_makernotes_t, %struct.libraw_fuji_info_t, %struct.libraw_olympus_makernotes_t, %struct.libraw_sony_info_t, %struct.libraw_kodak_makernotes_t, %struct.libraw_panasonic_makernotes_t, %struct.libraw_pentax_makernotes_t, %struct.libraw_p1_makernotes_t, %struct.libraw_ricoh_makernotes_t, %struct.libraw_samsung_makernotes_t, %struct.libraw_metadata_common_t }
%struct.libraw_canon_makernotes_t = type { i32, i32, i32, i32, [4 x i32], i32, [4 x i32], i16, i16, i8, i16, i16, i16, i16, i16, i16, i16, i16, i16, i16, i16, i16, i16, i32, float, i16, i16, i16, i32, i16, i32, i32, i16, i32, %struct.libraw_area_t, %struct.libraw_area_t, %struct.libraw_area_t, %struct.libraw_area_t, %struct.libraw_area_t, [2 x i16] }
%struct.libraw_area_t = type { i16, i16, i16, i16 }
%struct.libraw_nikon_makernotes_t = type { double, i16, i16, [7 x i8], i8, i8, [13 x i8], [20 x i8], [4 x i8], [4 x i8], [4 x i8], i8, i8, i8, i8, i8, [2 x i8], i8, i8, i8, i8, i8, [4 x i8], [4 x i8], i8, i16, i32, i32, i32, i32, [4 x double], i8, i8, i8, i32, i32, i32, i8, [4 x i16], i16, %struct.libraw_sensor_highspeed_crop_t, i16, i16, i16, i32, [20 x i8], [20 x i8], i32, i16, double, double, double }
%struct.libraw_sensor_highspeed_crop_t = type { i16, i16, i16, i16 }
%struct.libraw_hasselblad_makernotes_t = type { i32, double, [8 x i8], [64 x i8], [64 x i8], i32, i32, i32, i32, [32 x i8], [64 x i8], i32, [2 x i32], [2 x i32], [4 x [3 x double]] }
%struct.libraw_fuji_info_t = type { float, i16, i16, i16, i16, i16, i16, i16, i16, [33 x i8], [33 x i8], float, i16, i16, [2 x i16], i16, i32, i32, i16, [3 x i16], i16, i16, i16, i16, i16, i32, i16, [13 x i8], [5 x i8], [5 x i8], i32, i16, i32, i16, [9 x i16], [32 x i32], i32, i32, i32, [2 x float], i32 }
%struct.libraw_olympus_makernotes_t = type { [6 x i8], i16, [2 x i32], [5 x i16], i16, [2 x i16], i16, i16, [64 x i32], [5 x double], i16, i8, [3 x i16], [3 x i32], i16, i16, i16, i16, double, [4 x i16], [2 x i32], i8, i32, i16, i16 }
%struct.libraw_sony_info_t = type { i16, i8, i8, i32, i8, i32, i8, i8, i16, [2 x i16], i8, i8, i16, [10 x i8], i8, i8, [4 x i16], i16, i8, i8, i8, i16, i32, i16, [2 x i16], i16, i16, i16, i16, i16, i16, i16, i32, float, i16, i32, i32, i16, [20 x i8], i32, i16, i32, i8, i8, i16, i16, i16, i16, i16, i16, i16, i16, i16, i32, i16, [16 x i8], float }
%struct.libraw_kodak_makernotes_t = type { i16, i16, i16, i16, i16, i16, [3 x [3 x float]], [3 x [3 x float]], [3 x [3 x float]], [3 x [3 x float]], [3 x [3 x float]], [3 x [3 x float]], i16, i16, i16, i16, float, float }
%struct.libraw_panasonic_makernotes_t = type { i16, i16, [8 x float], i32, float, [3 x i32], i16, i16, i32, i32 }
%struct.libraw_pentax_makernotes_t = type { [4 x i8], [2 x i16], [2 x i16], i16, i32, i32, i16, i16, i8, i8, i16 }
%struct.libraw_p1_makernotes_t = type { [64 x i8], [64 x i8], [256 x i8], [64 x i8] }
%struct.libraw_ricoh_makernotes_t = type { i16, [2 x i32], [2 x i32], i16, i32, i32, i32, i32, i16, i16, i16, i16, i16, i16, double, double }
%struct.libraw_samsung_makernotes_t = type { [4 x i32], [4 x i32], [2 x i32], [11 x i32], double, i32, [32 x i8] }
%struct.libraw_metadata_common_t = type { float, float, float, float, float, float, float, float, float, float, float, float, float, float, float, float, i16, [128 x i8], float, [4 x %struct.libraw_afinfo_item_t], i32 }
%struct.libraw_afinfo_item_t = type { i32, i16, i32, i32, ptr }
%struct.libraw_shootinginfo_t = type { i16, i16, i16, i16, i16, i16, i16, [64 x i8], [64 x i8] }
%struct.libraw_output_params_t = type { [4 x i32], [4 x i32], [4 x double], [6 x double], [4 x float], float, float, i32, i32, i32, i32, i32, i32, i32, ptr, ptr, ptr, ptr, i32, i32, i32, i32, i32, i32, [4 x i32], i32, i32, float, float, i32, i32, i32, i32, i32, i32, i32, i32, float, float, i32, i32 }
%struct.libraw_raw_unpack_params_t = type { i32, i32, i32, i32, i32, i32, i32, float, [5 x i8], ptr }
%struct.libraw_colordata_t = type { [65536 x i16], [4104 x i32], i32, i32, i32, [4 x i64], float, float, [8 x [8 x i16]], [4 x float], [4 x float], [3 x [4 x float]], [3 x [4 x float]], [3 x [4 x float]], [4 x [3 x float]], %struct.ph1_t, float, float, [64 x i8], [64 x i8], [64 x i8], [64 x i8], [17 x i8], [64 x i8], ptr, i32, [8 x i32], [2 x %struct.libraw_dng_color_t], %struct.libraw_dng_levels_t, [256 x [4 x i32]], [64 x [5 x float]], i32, [2 x %struct.libraw_P1_color_t], i32, i32 }
%struct.ph1_t = type { i32, i32, i32, i32, i32, i32, i32, i32, float }
%struct.libraw_dng_color_t = type { i32, i16, [4 x [4 x float]], [4 x [3 x float]], [3 x [4 x float]] }
%struct.libraw_dng_levels_t = type { i32, [4104 x i32], i32, [4104 x float], float, [4 x i32], [4 x i16], [4 x float], i32, [4 x float], [4 x float], float, float }
%struct.libraw_P1_color_t = type { [9 x float] }
%struct.libraw_imgother_t = type { float, float, float, float, i64, i32, [32 x i32], %struct.libraw_gps_info_t, [512 x i8], [64 x i8], [4 x float] }
%struct.libraw_gps_info_t = type { [3 x float], [3 x float], [3 x float], float, i8, i8, i8, i8, i8 }
%struct.libraw_thumbnail_t = type { i32, i16, i16, i32, i32, ptr }
%struct.libraw_thumbnail_list_t = type { i32, [8 x %struct.libraw_thumbnail_item_t] }
%struct.libraw_thumbnail_item_t = type { i32, i16, i16, i16, i32, i32, i64 }
%struct.libraw_rawdata_t = type { ptr, ptr, ptr, ptr, ptr, ptr, ptr, ptr, ptr, %struct.libraw_iparams_t, %struct.libraw_image_sizes_t, %struct.libraw_internal_output_params_t, %struct.libraw_colordata_t }
%struct.libraw_internal_output_params_t = type { i32, i32, i32, i16, i16 }
%struct.libraw_internal_data_t = type { %struct.internal_data_t, %struct.libraw_internal_output_params_t, %struct.output_data_t, %struct.identify_data_t, %struct.unpacker_data_t }
%struct.internal_data_t = type { ptr, ptr, i32, ptr, i64, i64, [4 x i32] }
%struct.output_data_t = type { ptr, ptr }
%struct.identify_data_t = type { i32, i64, i64, i32, i32, i32 }
%struct.unpacker_data_t = type { i16, [4 x i16], [3 x i16], i32, i64, i64, i64, i64, i64, i64, i32, i32, i32, i32, i32, i32, i32, i32, i32, i32, i32, i32, i32, i32, i32, i32, i32, i64, i32, i32, i32, i32, i32, i32, i32, i32, i32, %struct.pana8_tags_t, [16 x %struct.crx_data_header_t], i32, i32, i16, i16, i32, i32, i32, i32, i32, i32, i32, [20 x i32], i16 }
%struct.pana8_tags_t = type { [6 x i32], [6 x i16], i16, [4 x i16], [17 x i16], [17 x i16], [17 x i16], i16, i16, [5 x i64], [5 x i16], [5 x i32], [5 x i16], [5 x i16] }
%struct.crx_data_header_t = type { i32, i32, i32, i32, i32, i32, i32, i32, i32, i32, i32, i32, i32, i32, i32, i64, i32, ptr, i32, i32, i32, ptr, i32, ptr }
%struct.decode = type { [2 x ptr], i32 }
%struct.tiff_ifd_t = type { i32, i32, i32, i32, i32, i32, i32, i32, i32, i32, i32, i32, i32, i32, i32, ptr, i32, ptr, i32, i32, i32, i32, i32, i32, i32, float, i64, i64, i32, [2 x %struct.libraw_dng_color_t], %struct.libraw_dng_levels_t, i32 }
%class.libraw_memmgr = type <{ ptr, i32, [4 x i8] }>
%struct.libraw_callbacks_t = type { ptr, ptr, ptr, ptr, ptr, ptr, ptr, ptr, ptr, ptr, ptr, ptr, ptr, ptr, ptr, ptr, ptr }

; Function Attrs: inlinehint mustprogress nounwind uwtable
define linkonce_odr noundef i32 @_ZN4AAHD9nr_offsetEii(ptr noundef nonnull align 8 dereferenceable(128) %0, i32 noundef %1, i32 noundef %2) #3 comdat align 2 {
  %4 = alloca ptr, align 8
  %5 = alloca i32, align 4
  %6 = alloca i32, align 4
  store ptr %0, ptr %4, align 8, !tbaa !6
  store i32 %1, ptr %5, align 4, !tbaa !88
  store i32 %2, ptr %6, align 4, !tbaa !88
  %7 = load ptr, ptr %4, align 8
  %8 = load i32, ptr %5, align 4, !tbaa !88
  %9 = getelementptr inbounds nuw %struct.AAHD, ptr %7, i32 0, i32 1
  %10 = load i32, ptr %9, align 4, !tbaa !79
  %11 = mul nsw i32 %8, %10
  %12 = load i32, ptr %6, align 4, !tbaa !88
  %13 = add nsw i32 %11, %12
  ret i32 %13
}

; Function Attrs: mustprogress nounwind uwtable
define void @_ZN4AAHD15refine_ihv_dirsEi(ptr noundef nonnull align 8 dereferenceable(128) %0, i32 noundef %1) #4 align 2 {
  %3 = alloca ptr, align 8
  %4 = alloca i32, align 4
  %5 = alloca i32, align 4
  %6 = alloca i32, align 4
  %7 = alloca i32, align 4
  %8 = alloca i32, align 4
  %9 = alloca i32, align 4
  store ptr %0, ptr %3, align 8, !tbaa !6
  store i32 %1, ptr %4, align 4, !tbaa !88
  %10 = load ptr, ptr %3, align 8
  call void @llvm.lifetime.start.p0(i64 4, ptr %5) #9
  %11 = getelementptr inbounds nuw %struct.AAHD, ptr %10, i32 0, i32 10
  %12 = load ptr, ptr %11, align 8, !tbaa !13
  %13 = getelementptr inbounds nuw %class.LibRaw, ptr %12, i32 0, i32 1
  %14 = getelementptr inbounds nuw %struct.libraw_data_t, ptr %13, i32 0, i32 1
  %15 = getelementptr inbounds nuw %struct.libraw_image_sizes_t, ptr %14, i32 0, i32 7
  %16 = load i16, ptr %15, align 2, !tbaa !78
  %17 = zext i16 %16 to i32
  store i32 %17, ptr %5, align 4, !tbaa !88
  call void @llvm.lifetime.start.p0(i64 4, ptr %6) #9
  %18 = load i32, ptr %4, align 4, !tbaa !88
  %19 = add nsw i32 %18, 4
  %20 = call noundef i32 @_ZN4AAHD9nr_offsetEii(ptr noundef nonnull align 8 dereferenceable(128) %10, i32 noundef %19, i32 noundef 4) #9
  store i32 %20, ptr %6, align 4, !tbaa !88
  call void @llvm.lifetime.start.p0(i64 4, ptr %7) #9
  store i32 0, ptr %7, align 4, !tbaa !88
  br label %21

21:                                               ; preds = %194, %2
  %22 = load i32, ptr %7, align 4, !tbaa !88
  %23 = load i32, ptr %5, align 4, !tbaa !88
  %24 = icmp slt i32 %22, %23
  br i1 %24, label %26, label %25

25:                                               ; preds = %21
  call void @llvm.lifetime.end.p0(i64 4, ptr %7) #9
  br label %199

26:                                               ; preds = %21
  %27 = getelementptr inbounds nuw %struct.AAHD, ptr %10, i32 0, i32 4
  %28 = load ptr, ptr %27, align 8, !tbaa !84
  %29 = load i32, ptr %6, align 4, !tbaa !88
  %30 = sext i32 %29 to i64
  %31 = getelementptr inbounds i8, ptr %28, i64 %30
  %32 = load i8, ptr %31, align 1, !tbaa !103
  %33 = sext i8 %32 to i32
  %34 = and i32 %33, 1
  %35 = icmp ne i32 %34, 0
  br i1 %35, label %36, label %37

36:                                               ; preds = %26
  br label %194

37:                                               ; preds = %26
  call void @llvm.lifetime.start.p0(i64 4, ptr %8) #9
  %38 = getelementptr inbounds nuw %struct.AAHD, ptr %10, i32 0, i32 4
  %39 = load ptr, ptr %38, align 8, !tbaa !84
  %40 = load i32, ptr %6, align 4, !tbaa !88
  %41 = getelementptr inbounds nuw %struct.AAHD, ptr %10, i32 0, i32 1
  %42 = load i32, ptr %41, align 4, !tbaa !79
  %43 = sub nsw i32 0, %42
  %44 = add nsw i32 %40, %43
  %45 = sext i32 %44 to i64
  %46 = getelementptr inbounds i8, ptr %39, i64 %45
  %47 = load i8, ptr %46, align 1, !tbaa !103
  %48 = sext i8 %47 to i32
  %49 = and i32 %48, 4
  %50 = getelementptr inbounds nuw %struct.AAHD, ptr %10, i32 0, i32 4
  %51 = load ptr, ptr %50, align 8, !tbaa !84
  %52 = load i32, ptr %6, align 4, !tbaa !88
  %53 = getelementptr inbounds nuw %struct.AAHD, ptr %10, i32 0, i32 1
  %54 = load i32, ptr %53, align 4, !tbaa !79
  %55 = add nsw i32 %52, %54
  %56 = sext i32 %55 to i64
  %57 = getelementptr inbounds i8, ptr %51, i64 %56
  %58 = load i8, ptr %57, align 1, !tbaa !103
  %59 = sext i8 %58 to i32
  %60 = and i32 %59, 4
  %61 = add nsw i32 %49, %60
  %62 = getelementptr inbounds nuw %struct.AAHD, ptr %10, i32 0, i32 4
  %63 = load ptr, ptr %62, align 8, !tbaa !84
  %64 = load i32, ptr %6, align 4, !tbaa !88
  %65 = add nsw i32 %64, -1
  %66 = sext i32 %65 to i64
  %67 = getelementptr inbounds i8, ptr %63, i64 %66
  %68 = load i8, ptr %67, align 1, !tbaa !103
  %69 = sext i8 %68 to i32
  %70 = and i32 %69, 4
  %71 = add nsw i32 %61, %70
  %72 = getelementptr inbounds nuw %struct.AAHD, ptr %10, i32 0, i32 4
  %73 = load ptr, ptr %72, align 8, !tbaa !84
  %74 = load i32, ptr %6, align 4, !tbaa !88
  %75 = add nsw i32 %74, 1
  %76 = sext i32 %75 to i64
  %77 = getelementptr inbounds i8, ptr %73, i64 %76
  %78 = load i8, ptr %77, align 1, !tbaa !103
  %79 = sext i8 %78 to i32
  %80 = and i32 %79, 4
  %81 = add nsw i32 %71, %80
  store i32 %81, ptr %8, align 4, !tbaa !88
  call void @llvm.lifetime.start.p0(i64 4, ptr %9) #9
  %82 = getelementptr inbounds nuw %struct.AAHD, ptr %10, i32 0, i32 4
  %83 = load ptr, ptr %82, align 8, !tbaa !84
  %84 = load i32, ptr %6, align 4, !tbaa !88
  %85 = getelementptr inbounds nuw %struct.AAHD, ptr %10, i32 0, i32 1
  %86 = load i32, ptr %85, align 4, !tbaa !79
  %87 = sub nsw i32 0, %86
  %88 = add nsw i32 %84, %87
  %89 = sext i32 %88 to i64
  %90 = getelementptr inbounds i8, ptr %83, i64 %89
  %91 = load i8, ptr %90, align 1, !tbaa !103
  %92 = sext i8 %91 to i32
  %93 = and i32 %92, 2
  %94 = getelementptr inbounds nuw %struct.AAHD, ptr %10, i32 0, i32 4
  %95 = load ptr, ptr %94, align 8, !tbaa !84
  %96 = load i32, ptr %6, align 4, !tbaa !88
  %97 = getelementptr inbounds nuw %struct.AAHD, ptr %10, i32 0, i32 1
  %98 = load i32, ptr %97, align 4, !tbaa !79
  %99 = add nsw i32 %96, %98
  %100 = sext i32 %99 to i64
  %101 = getelementptr inbounds i8, ptr %95, i64 %100
  %102 = load i8, ptr %101, align 1, !tbaa !103
  %103 = sext i8 %102 to i32
  %104 = and i32 %103, 2
  %105 = add nsw i32 %93, %104
  %106 = getelementptr inbounds nuw %struct.AAHD, ptr %10, i32 0, i32 4
  %107 = load ptr, ptr %106, align 8, !tbaa !84
  %108 = load i32, ptr %6, align 4, !tbaa !88
  %109 = add nsw i32 %108, -1
  %110 = sext i32 %109 to i64
  %111 = getelementptr inbounds i8, ptr %107, i64 %110
  %112 = load i8, ptr %111, align 1, !tbaa !103
  %113 = sext i8 %112 to i32
  %114 = and i32 %113, 2
  %115 = add nsw i32 %105, %114
  %116 = getelementptr inbounds nuw %struct.AAHD, ptr %10, i32 0, i32 4
  %117 = load ptr, ptr %116, align 8, !tbaa !84
  %118 = load i32, ptr %6, align 4, !tbaa !88
  %119 = add nsw i32 %118, 1
  %120 = sext i32 %119 to i64
  %121 = getelementptr inbounds i8, ptr %117, i64 %120
  %122 = load i8, ptr %121, align 1, !tbaa !103
  %123 = sext i8 %122 to i32
  %124 = and i32 %123, 2
  %125 = add nsw i32 %115, %124
  store i32 %125, ptr %9, align 4, !tbaa !88
  %126 = load i32, ptr %8, align 4, !tbaa !88
  %127 = sdiv i32 %126, 4
  store i32 %127, ptr %8, align 4, !tbaa !88
  %128 = load i32, ptr %9, align 4, !tbaa !88
  %129 = sdiv i32 %128, 2
  store i32 %129, ptr %9, align 4, !tbaa !88
  %130 = getelementptr inbounds nuw %struct.AAHD, ptr %10, i32 0, i32 4
  %131 = load ptr, ptr %130, align 8, !tbaa !84
  %132 = load i32, ptr %6, align 4, !tbaa !88
  %133 = sext i32 %132 to i64
  %134 = getelementptr inbounds i8, ptr %131, i64 %133
  %135 = load i8, ptr %134, align 1, !tbaa !103
  %136 = sext i8 %135 to i32
  %137 = and i32 %136, 4
  %138 = icmp ne i32 %137, 0
  br i1 %138, label %139, label %161

139:                                              ; preds = %37
  %140 = load i32, ptr %9, align 4, !tbaa !88
  %141 = icmp sgt i32 %140, 3
  br i1 %141, label %142, label %161

142:                                              ; preds = %139
  %143 = getelementptr inbounds nuw %struct.AAHD, ptr %10, i32 0, i32 4
  %144 = load ptr, ptr %143, align 8, !tbaa !84
  %145 = load i32, ptr %6, align 4, !tbaa !88
  %146 = sext i32 %145 to i64
  %147 = getelementptr inbounds i8, ptr %144, i64 %146
  %148 = load i8, ptr %147, align 1, !tbaa !103
  %149 = sext i8 %148 to i32
  %150 = and i32 %149, -5
  %151 = trunc i32 %150 to i8
  store i8 %151, ptr %147, align 1, !tbaa !103
  %152 = getelementptr inbounds nuw %struct.AAHD, ptr %10, i32 0, i32 4
  %153 = load ptr, ptr %152, align 8, !tbaa !84
  %154 = load i32, ptr %6, align 4, !tbaa !88
  %155 = sext i32 %154 to i64
  %156 = getelementptr inbounds i8, ptr %153, i64 %155
  %157 = load i8, ptr %156, align 1, !tbaa !103
  %158 = sext i8 %157 to i32
  %159 = or i32 %158, 2
  %160 = trunc i32 %159 to i8
  store i8 %160, ptr %156, align 1, !tbaa !103
  br label %161

161:                                              ; preds = %142, %139, %37
  %162 = getelementptr inbounds nuw %struct.AAHD, ptr %10, i32 0, i32 4
  %163 = load ptr, ptr %162, align 8, !tbaa !84
  %164 = load i32, ptr %6, align 4, !tbaa !88
  %165 = sext i32 %164 to i64
  %166 = getelementptr inbounds i8, ptr %163, i64 %165
  %167 = load i8, ptr %166, align 1, !tbaa !103
  %168 = sext i8 %167 to i32
  %169 = and i32 %168, 2
  %170 = icmp ne i32 %169, 0
  br i1 %170, label %171, label %193

171:                                              ; preds = %161
  %172 = load i32, ptr %8, align 4, !tbaa !88
  %173 = icmp sgt i32 %172, 3
  br i1 %173, label %174, label %193

174:                                              ; preds = %171
  %175 = getelementptr inbounds nuw %struct.AAHD, ptr %10, i32 0, i32 4
  %176 = load ptr, ptr %175, align 8, !tbaa !84
  %177 = load i32, ptr %6, align 4, !tbaa !88
  %178 = sext i32 %177 to i64
  %179 = getelementptr inbounds i8, ptr %176, i64 %178
  %180 = load i8, ptr %179, align 1, !tbaa !103
  %181 = sext i8 %180 to i32
  %182 = and i32 %181, -3
  %183 = trunc i32 %182 to i8
  store i8 %183, ptr %179, align 1, !tbaa !103
  %184 = getelementptr inbounds nuw %struct.AAHD, ptr %10, i32 0, i32 4
  %185 = load ptr, ptr %184, align 8, !tbaa !84
  %186 = load i32, ptr %6, align 4, !tbaa !88
  %187 = sext i32 %186 to i64
  %188 = getelementptr inbounds i8, ptr %185, i64 %187
  %189 = load i8, ptr %188, align 1, !tbaa !103
  %190 = sext i8 %189 to i32
  %191 = or i32 %190, 4
  %192 = trunc i32 %191 to i8
  store i8 %192, ptr %188, align 1, !tbaa !103
  br label %193

193:                                              ; preds = %174, %171, %161
  call void @llvm.lifetime.end.p0(i64 4, ptr %9) #9
  call void @llvm.lifetime.end.p0(i64 4, ptr %8) #9
  br label %194

194:                                              ; preds = %193, %36
  %195 = load i32, ptr %7, align 4, !tbaa !88
  %196 = add nsw i32 %195, 1
  store i32 %196, ptr %7, align 4, !tbaa !88
  %197 = load i32, ptr %6, align 4, !tbaa !88
  %198 = add nsw i32 %197, 1
  store i32 %198, ptr %6, align 4, !tbaa !88
  br label %21, !llvm.loop !134

199:                                              ; preds = %25
  call void @llvm.lifetime.end.p0(i64 4, ptr %6) #9
  call void @llvm.lifetime.end.p0(i64 4, ptr %5) #9
  ret void
}