; Function Attrs: mustprogress nofree norecurse nosync nounwind memory(readwrite, inaccessiblemem: none) uwtable
define void @_ZN4AAHD15refine_ihv_dirsEi(ptr noundef nonnull readonly align 8 captures(none) dereferenceable(128) %0, i32 noundef %1) local_unnamed_addr #4 align 2 {
  %3 = getelementptr inbounds nuw i8, ptr %0, i64 120
  %4 = load ptr, ptr %3, align 8, !tbaa !95
  %5 = getelementptr inbounds nuw i8, ptr %4, i64 30
  %6 = load i16, ptr %5, align 2, !tbaa !75
  %7 = zext i16 %6 to i32
  %8 = getelementptr inbounds nuw i8, ptr %0, i64 4
  %.not30 = icmp eq i16 %6, 0
  br i1 %.not30, label %._crit_edge, label %.lr.ph

.lr.ph:                                           ; preds = %2
  %9 = load i32, ptr %8, align 4, !tbaa !76
  %10 = add i32 %1, 4
  %11 = mul i32 %9, %10
  %12 = add i32 %11, 4
  %13 = getelementptr inbounds nuw i8, ptr %0, i64 40
  %14 = sext i32 %12 to i64
  br label %15

._crit_edge:                                      ; preds = %73, %2
  ret void

15:                                               ; preds = %.lr.ph, %73
  %indvars.iv = phi i64 [ %14, %.lr.ph ], [ %indvars.iv.next, %73 ]
  %.02728 = phi i32 [ 0, %.lr.ph ], [ %74, %73 ]
  %16 = load ptr, ptr %13, align 8, !tbaa !81
  %17 = getelementptr inbounds i8, ptr %16, i64 %indvars.iv
  %18 = load i8, ptr %17, align 1, !tbaa !104
  %19 = and i8 %18, 1
  %.not = icmp eq i8 %19, 0
  br i1 %.not, label %20, label %73

20:                                               ; preds = %15
  %21 = load i32, ptr %8, align 4, !tbaa !76
  %22 = sext i32 %21 to i64
  %23 = sub nsw i64 %indvars.iv, %22
  %24 = getelementptr inbounds i8, ptr %16, i64 %23
  %25 = load i8, ptr %24, align 1, !tbaa !104
  %26 = zext i8 %25 to i32
  %27 = and i32 %26, 4
  %28 = getelementptr i8, ptr %16, i64 %indvars.iv
  %29 = getelementptr i8, ptr %28, i64 %22
  %30 = load i8, ptr %29, align 1, !tbaa !104
  %31 = zext i8 %30 to i32
  %32 = and i32 %31, 4
  %33 = add nuw nsw i32 %32, %27
  %34 = getelementptr i8, ptr %17, i64 -1
  %35 = load i8, ptr %34, align 1, !tbaa !104
  %36 = zext i8 %35 to i32
  %37 = and i32 %36, 4
  %38 = add nuw nsw i32 %33, %37
  %39 = getelementptr i8, ptr %17, i64 1
  %40 = load i8, ptr %39, align 1, !tbaa !104
  %41 = zext i8 %40 to i32
  %42 = and i32 %41, 4
  %43 = add nuw nsw i32 %38, %42
  %44 = and i32 %26, 2
  %45 = and i32 %31, 2
  %46 = add nuw nsw i32 %45, %44
  %47 = and i32 %36, 2
  %48 = add nuw nsw i32 %46, %47
  %49 = and i32 %41, 2
  %50 = add nuw nsw i32 %48, %49
  %51 = and i8 %18, 4
  %52 = icmp ne i8 %51, 0
  %53 = icmp samesign ugt i32 %50, 6
  %or.cond = select i1 %52, i1 %53, i1 false
  br i1 %or.cond, label %54, label %60

54:                                               ; preds = %20
  %55 = and i8 %18, -6
  store i8 %55, ptr %17, align 1, !tbaa !104
  %56 = load ptr, ptr %13, align 8, !tbaa !81
  %57 = getelementptr inbounds i8, ptr %56, i64 %indvars.iv
  %58 = load i8, ptr %57, align 1, !tbaa !104
  %59 = or i8 %58, 2
  store i8 %59, ptr %57, align 1, !tbaa !104
  %.pre = load ptr, ptr %13, align 8, !tbaa !81
  %.phi.trans.insert = getelementptr inbounds i8, ptr %.pre, i64 %indvars.iv
  %.pre32 = load i8, ptr %.phi.trans.insert, align 1, !tbaa !104
  br label %60

60:                                               ; preds = %54, %20
  %61 = phi i8 [ %.pre32, %54 ], [ %18, %20 ]
  %62 = phi ptr [ %.pre, %54 ], [ %16, %20 ]
  %63 = and i8 %61, 2
  %64 = icmp ne i8 %63, 0
  %65 = icmp samesign ugt i32 %43, 12
  %or.cond3 = select i1 %64, i1 %65, i1 false
  br i1 %or.cond3, label %66, label %73

66:                                               ; preds = %60
  %67 = getelementptr inbounds i8, ptr %62, i64 %indvars.iv
  %68 = and i8 %61, -3
  store i8 %68, ptr %67, align 1, !tbaa !104
  %69 = load ptr, ptr %13, align 8, !tbaa !81
  %70 = getelementptr inbounds i8, ptr %69, i64 %indvars.iv
  %71 = load i8, ptr %70, align 1, !tbaa !104
  %72 = or i8 %71, 4
  store i8 %72, ptr %70, align 1, !tbaa !104
  br label %73

73:                                               ; preds = %60, %66, %15
  %74 = add nuw nsw i32 %.02728, 1
  %indvars.iv.next = add nsw i64 %indvars.iv, 1
  %exitcond.not = icmp eq i32 %74, %7
  br i1 %exitcond.not, label %._crit_edge, label %15, !llvm.loop !131
}